; Function Attrs: mustprogress nofree nounwind uwtable
define dso_local noundef nonnull ptr @_ZN30btKinematicCharacterController19getUpAxisDirectionsEv() local_unnamed_addr #17 align 2 personality ptr @__gxx_personality_v0 {
entry:
  %0 = load atomic i8, ptr @_ZGVZN30btKinematicCharacterController19getUpAxisDirectionsEvE16sUpAxisDirection acquire, align 8
  %guard.uninitialized = icmp eq i8 %0, 0
  br i1 %guard.uninitialized, label %init.check, label %init.end, !prof !14

init.check:                                       ; preds = %entry
  %1 = tail call i32 @__cxa_guard_acquire(ptr nonnull @_ZGVZN30btKinematicCharacterController19getUpAxisDirectionsEvE16sUpAxisDirection) #26
  %tobool.not = icmp eq i32 %1, 0
  br i1 %tobool.not, label %init.end, label %init

init:                                             ; preds = %init.check
  store float 1.000000e+00, ptr @_ZZN30btKinematicCharacterController19getUpAxisDirectionsEvE16sUpAxisDirection, align 16
  tail call void @llvm.memset.p0.i64(ptr noundef nonnull align 4 dereferenceable(16) getelementptr inbounds ([3 x %class.btVector3], ptr @_ZZN30btKinematicCharacterController19getUpAxisDirectionsEvE16sUpAxisDirection, i64 0, i64 0, i32 0, i64 1), i8 0, i64 16, i1 false)
  store float 1.000000e+00, ptr getelementptr inbounds ([3 x %class.btVector3], ptr @_ZZN30btKinematicCharacterController19getUpAxisDirectionsEvE16sUpAxisDirection, i64 0, i64 1, i32 0, i64 1), align 4
  tail call void @llvm.memset.p0.i64(ptr noundef nonnull align 8 dereferenceable(16) getelementptr inbounds ([3 x %class.btVector3], ptr @_ZZN30btKinematicCharacterController19getUpAxisDirectionsEvE16sUpAxisDirection, i64 0, i64 1, i32 0, i64 2), i8 0, i64 16, i1 false)
  store <2 x float> <float 1.000000e+00, float 0.000000e+00>, ptr getelementptr inbounds ([3 x %class.btVector3], ptr @_ZZN30btKinematicCharacterController19getUpAxisDirectionsEvE16sUpAxisDirection, i64 0, i64 2, i32 0, i64 2), align 8
  tail call void @__cxa_guard_release(ptr nonnull @_ZGVZN30btKinematicCharacterController19getUpAxisDirectionsEvE16sUpAxisDirection) #26
  br label %init.end

init.end:                                         ; preds = %init, %init.check, %entry
  ret ptr @_ZZN30btKinematicCharacterController19getUpAxisDirectionsEvE16sUpAxisDirection
}